; Function Attrs: mustprogress nofree norecurse nosync nounwind willreturn memory(write, argmem: readwrite, inaccessiblemem: none) uwtable
define void @ossl_quic_demux_reinject_urxe(ptr noundef captures(none) %0, ptr noundef %1) local_unnamed_addr #5 {
  %3 = getelementptr inbounds nuw i8, ptr %0, i64 88
  %4 = load ptr, ptr %3, align 8, !tbaa !17
  %.not.i = icmp eq ptr %4, null
  br i1 %.not.i, label %7, label %5

5:                                                ; preds = %2
  %6 = getelementptr inbounds nuw i8, ptr %4, i64 8
  store ptr %1, ptr %6, align 8, !tbaa !23
  br label %7

7:                                                ; preds = %5, %2
  store ptr %4, ptr %1, align 8, !tbaa !18
  %8 = getelementptr inbounds nuw i8, ptr %1, i64 8
  store ptr null, ptr %8, align 8, !tbaa !23
  store ptr %1, ptr %3, align 8, !tbaa !17
  %9 = getelementptr inbounds nuw i8, ptr %0, i64 96
  %10 = load ptr, ptr %9, align 8, !tbaa !22
  %11 = icmp eq ptr %10, null
  br i1 %11, label %12, label %ossl_list_urxe_insert_head.exit

12:                                               ; preds = %7
  store ptr %1, ptr %9, align 8, !tbaa !22
  br label %ossl_list_urxe_insert_head.exit

ossl_list_urxe_insert_head.exit:                  ; preds = %7, %12
  %13 = getelementptr inbounds nuw i8, ptr %0, i64 104
  %14 = load i64, ptr %13, align 8, !tbaa !24
  %15 = add i64 %14, 1
  store i64 %15, ptr %13, align 8, !tbaa !24
  %16 = getelementptr inbounds nuw i8, ptr %1, i64 289
  store i8 1, ptr %16, align 1, !tbaa !31
  ret void
}